target datalayout = "e-m:e-p270:32:32-p271:32:32-p272:64:64-i64:64-i128:128-f80:128-n8:16:32:64-S128"
target triple = "x86_64-pc-linux-gnu"

%struct._sccp_decode_context_t = type { i8, i32, i32, ptr, ptr }

@hf_sccp_variable_pointer1 = internal global i32 0, align 4
@hf_sccp_variable_pointer2 = internal global i32 0, align 4
@hf_sccp_variable_pointer3 = internal global i32 0, align 4
@hf_sccp_optional_pointer = internal global i32 0, align 4
@hf_sccp_segmented_data = internal global i32 0, align 4
@sccp_reassemble = internal global i8 1, align 1

; Function Attrs: null_pointer_is_valid sspstrong uwtable
define internal i32 @dissect_xudt_common(ptr noundef %0, ptr noundef %1, ptr noundef %2, ptr noundef %3, i32 noundef %4, ptr noundef %5, ptr noundef %6, ptr noundef %7) #0 {
  %9 = alloca ptr, align 8
  %10 = alloca ptr, align 8
  %11 = alloca ptr, align 8
  %12 = alloca ptr, align 8
  %13 = alloca i32, align 4
  %14 = alloca ptr, align 8
  %15 = alloca ptr, align 8
  %16 = alloca ptr, align 8
  %17 = alloca i16, align 2
  %18 = alloca i16, align 2
  %19 = alloca i16, align 2
  %20 = alloca i16, align 2
  %21 = alloca i16, align 2
  %22 = alloca i16, align 2
  %23 = alloca i8, align 1
  %24 = alloca ptr, align 8
  %25 = alloca i32, align 4
  %26 = alloca i32, align 4
  %27 = alloca i8, align 1
  %28 = alloca i8, align 1
  store ptr %0, ptr %9, align 8
  store ptr %1, ptr %10, align 8
  store ptr %2, ptr %11, align 8
  store ptr %3, ptr %12, align 8
  store i32 %4, ptr %13, align 4
  store ptr %5, ptr %14, align 8
  store ptr %6, ptr %15, align 8
  store ptr %7, ptr %16, align 8
  call void @llvm.lifetime.start.p0(i64 2, ptr %17) #10
  store i16 0, ptr %17, align 2
  call void @llvm.lifetime.start.p0(i64 2, ptr %18) #10
  store i16 0, ptr %18, align 2
  call void @llvm.lifetime.start.p0(i64 2, ptr %19) #10
  store i16 0, ptr %19, align 2
  call void @llvm.lifetime.start.p0(i64 2, ptr %20) #10
  store i16 0, ptr %20, align 2
  call void @llvm.lifetime.start.p0(i64 2, ptr %21) #10
  store i16 0, ptr %21, align 2
  call void @llvm.lifetime.start.p0(i64 2, ptr %22) #10
  store i16 0, ptr %22, align 2
  call void @llvm.lifetime.start.p0(i64 1, ptr %23) #10
  store i8 0, ptr %23, align 1
  call void @llvm.lifetime.start.p0(i64 8, ptr %24) #10
  store ptr null, ptr %24, align 8
  call void @llvm.lifetime.start.p0(i64 4, ptr %25) #10
  store i32 0, ptr %25, align 4
  call void @llvm.lifetime.start.p0(i64 4, ptr %26) #10
  %29 = load ptr, ptr %9, align 8
  %30 = call i32 @tvb_offset_from_real_beginning(ptr noundef %29)
  store i32 %30, ptr %26, align 4
  br label %31

31:                                               ; preds = %8
  %32 = load ptr, ptr %9, align 8
  %33 = load i32, ptr %13, align 4
  %34 = call zeroext i8 @tvb_get_uint8(ptr noundef %32, i32 noundef %33)
  %35 = zext i8 %34 to i16
  store i16 %35, ptr %17, align 2
  %36 = load ptr, ptr %11, align 8
  %37 = load i32, ptr @hf_sccp_variable_pointer1, align 4
  %38 = load ptr, ptr %9, align 8
  %39 = load i32, ptr %13, align 4
  %40 = load i16, ptr %17, align 2
  %41 = zext i16 %40 to i32
  %42 = call ptr @proto_tree_add_uint(ptr noundef %36, i32 noundef %37, ptr noundef %38, i32 noundef %39, i32 noundef 1, i32 noundef %41)
  %43 = load i32, ptr %13, align 4
  %44 = load i16, ptr %17, align 2
  %45 = zext i16 %44 to i32
  %46 = add i32 %45, %43
  %47 = trunc i32 %46 to i16
  store i16 %47, ptr %17, align 2
  %48 = load i32, ptr %13, align 4
  %49 = add i32 %48, 1
  store i32 %49, ptr %13, align 4
  br label %50

50:                                               ; preds = %31
  br label %51

51:                                               ; preds = %50
  br label %52

52:                                               ; preds = %51
  %53 = load ptr, ptr %9, align 8
  %54 = load i32, ptr %13, align 4
  %55 = call zeroext i8 @tvb_get_uint8(ptr noundef %53, i32 noundef %54)
  %56 = zext i8 %55 to i16
  store i16 %56, ptr %18, align 2
  %57 = load ptr, ptr %11, align 8
  %58 = load i32, ptr @hf_sccp_variable_pointer2, align 4
  %59 = load ptr, ptr %9, align 8
  %60 = load i32, ptr %13, align 4
  %61 = load i16, ptr %18, align 2
  %62 = zext i16 %61 to i32
  %63 = call ptr @proto_tree_add_uint(ptr noundef %57, i32 noundef %58, ptr noundef %59, i32 noundef %60, i32 noundef 1, i32 noundef %62)
  %64 = load i32, ptr %13, align 4
  %65 = load i16, ptr %18, align 2
  %66 = zext i16 %65 to i32
  %67 = add i32 %66, %64
  %68 = trunc i32 %67 to i16
  store i16 %68, ptr %18, align 2
  %69 = load i32, ptr %13, align 4
  %70 = add i32 %69, 1
  store i32 %70, ptr %13, align 4
  br label %71

71:                                               ; preds = %52
  br label %72

72:                                               ; preds = %71
  br label %73

73:                                               ; preds = %72
  %74 = load ptr, ptr %9, align 8
  %75 = load i32, ptr %13, align 4
  %76 = call zeroext i8 @tvb_get_uint8(ptr noundef %74, i32 noundef %75)
  %77 = zext i8 %76 to i16
  store i16 %77, ptr %19, align 2
  %78 = load ptr, ptr %11, align 8
  %79 = load i32, ptr @hf_sccp_variable_pointer3, align 4
  %80 = load ptr, ptr %9, align 8
  %81 = load i32, ptr %13, align 4
  %82 = load i16, ptr %19, align 2
  %83 = zext i16 %82 to i32
  %84 = call ptr @proto_tree_add_uint(ptr noundef %78, i32 noundef %79, ptr noundef %80, i32 noundef %81, i32 noundef 1, i32 noundef %83)
  %85 = load i32, ptr %13, align 4
  %86 = load i16, ptr %19, align 2
  %87 = zext i16 %86 to i32
  %88 = add i32 %87, %85
  %89 = trunc i32 %88 to i16
  store i16 %89, ptr %19, align 2
  %90 = load i32, ptr %13, align 4
  %91 = add i32 %90, 1
  store i32 %91, ptr %13, align 4
  br label %92

92:                                               ; preds = %73
  br label %93

93:                                               ; preds = %92
  br label %94

94:                                               ; preds = %93
  %95 = load ptr, ptr %9, align 8
  %96 = load i32, ptr %13, align 4
  %97 = call zeroext i8 @tvb_get_uint8(ptr noundef %95, i32 noundef %96)
  %98 = zext i8 %97 to i16
  store i16 %98, ptr %20, align 2
  store i16 %98, ptr %21, align 2
  %99 = load ptr, ptr %11, align 8
  %100 = load i32, ptr @hf_sccp_optional_pointer, align 4
  %101 = load ptr, ptr %9, align 8
  %102 = load i32, ptr %13, align 4
  %103 = load i16, ptr %20, align 2
  %104 = zext i16 %103 to i32
  %105 = call ptr @proto_tree_add_uint(ptr noundef %99, i32 noundef %100, ptr noundef %101, i32 noundef %102, i32 noundef 1, i32 noundef %104)
  %106 = load i32, ptr %13, align 4
  %107 = load i16, ptr %20, align 2
  %108 = zext i16 %107 to i32
  %109 = add i32 %108, %106
  %110 = trunc i32 %109 to i16
  store i16 %110, ptr %20, align 2
  %111 = load i32, ptr %13, align 4
  %112 = add i32 %111, 1
  store i32 %112, ptr %13, align 4
  br label %113

113:                                              ; preds = %94
  br label %114

114:                                              ; preds = %113
  %115 = load ptr, ptr %10, align 8
  %116 = load i32, ptr %26, align 4
  %117 = load ptr, ptr %14, align 8
  %118 = call ptr @get_sccp_assoc(ptr noundef %115, i32 noundef %116, ptr noundef %117)
  %119 = load ptr, ptr %14, align 8
  %120 = getelementptr inbounds nuw %struct._sccp_decode_context_t, ptr %119, i32 0, i32 3
  store ptr %118, ptr %120, align 8
  %121 = load ptr, ptr %9, align 8
  %122 = load ptr, ptr %10, align 8
  %123 = load ptr, ptr %11, align 8
  %124 = load ptr, ptr %14, align 8
  %125 = load i32, ptr %26, align 4
  call void @build_assoc_tree(ptr noundef %121, ptr noundef %122, ptr noundef %123, ptr noundef %124, i32 noundef %125)
  %126 = load ptr, ptr %9, align 8
  %127 = load ptr, ptr %10, align 8
  %128 = load ptr, ptr %11, align 8
  %129 = load ptr, ptr %12, align 8
  %130 = load i16, ptr %17, align 2
  %131 = zext i16 %130 to i32
  %132 = load ptr, ptr %14, align 8
  %133 = call zeroext i16 @dissect_sccp_variable_parameter(ptr noundef %126, ptr noundef %127, ptr noundef %128, ptr noundef %129, i8 noundef zeroext 3, i32 noundef %131, ptr noundef %132)
  %134 = load ptr, ptr %9, align 8
  %135 = load ptr, ptr %10, align 8
  %136 = load ptr, ptr %11, align 8
  %137 = load ptr, ptr %12, align 8
  %138 = load i16, ptr %18, align 2
  %139 = zext i16 %138 to i32
  %140 = load ptr, ptr %14, align 8
  %141 = call zeroext i16 @dissect_sccp_variable_parameter(ptr noundef %134, ptr noundef %135, ptr noundef %136, ptr noundef %137, i8 noundef zeroext 4, i32 noundef %139, ptr noundef %140)
  %142 = load i16, ptr %20, align 2
  store i16 %142, ptr %22, align 2
  br label %143

143:                                              ; preds = %155, %114
  %144 = load ptr, ptr %9, align 8
  %145 = load i16, ptr %22, align 2
  %146 = zext i16 %145 to i32
  %147 = call zeroext i8 @tvb_get_uint8(ptr noundef %144, i32 noundef %146)
  store i8 %147, ptr %23, align 1
  %148 = zext i8 %147 to i32
  %149 = icmp ne i32 %148, 0
  br i1 %149, label %150, label %170

150:                                              ; preds = %143
  %151 = load i8, ptr %23, align 1
  %152 = zext i8 %151 to i32
  %153 = icmp eq i32 %152, 16
  br i1 %153, label %154, label %155

154:                                              ; preds = %150
  br label %170

155:                                              ; preds = %150
  %156 = load i16, ptr %22, align 2
  %157 = zext i16 %156 to i32
  %158 = add i32 %157, 1
  %159 = trunc i32 %158 to i16
  store i16 %159, ptr %22, align 2
  %160 = load ptr, ptr %9, align 8
  %161 = load i16, ptr %22, align 2
  %162 = zext i16 %161 to i32
  %163 = call zeroext i8 @tvb_get_uint8(ptr noundef %160, i32 noundef %162)
  %164 = zext i8 %163 to i32
  %165 = add i32 %164, 1
  %166 = load i16, ptr %22, align 2
  %167 = zext i16 %166 to i32
  %168 = add i32 %167, %165
  %169 = trunc i32 %168 to i16
  store i16 %169, ptr %22, align 2
  br label %143, !llvm.loop !16

170:                                              ; preds = %154, %143
  %171 = load ptr, ptr %9, align 8
  %172 = load i16, ptr %22, align 2
  %173 = zext i16 %172 to i32
  %174 = call zeroext i8 @tvb_get_uint8(ptr noundef %171, i32 noundef %173)
  %175 = zext i8 %174 to i32
  %176 = icmp eq i32 %175, 16
  br i1 %176, label %177, label %229

177:                                              ; preds = %170
  %178 = load i8, ptr @sccp_reassemble, align 1, !range !6, !noundef !7
  %179 = trunc i8 %178 to i1
  br i1 %179, label %193, label %180

180:                                              ; preds = %177
  %181 = load ptr, ptr %11, align 8
  %182 = load i32, ptr @hf_sccp_segmented_data, align 4
  %183 = load ptr, ptr %9, align 8
  %184 = load i16, ptr %19, align 2
  %185 = zext i16 %184 to i32
  %186 = load ptr, ptr %9, align 8
  %187 = load i16, ptr %19, align 2
  %188 = zext i16 %187 to i32
  %189 = call zeroext i8 @tvb_get_uint8(ptr noundef %186, i32 noundef %188)
  %190 = zext i8 %189 to i32
  %191 = add i32 %190, 1
  %192 = call ptr @proto_tree_add_item(ptr noundef %181, i32 noundef %182, ptr noundef %183, i32 noundef %185, i32 noundef %191, i32 noundef 0)
  br label %228

193:                                              ; preds = %177
  call void @llvm.lifetime.start.p0(i64 1, ptr %27) #10
  call void @llvm.lifetime.start.p0(i64 1, ptr %28) #10
  store i8 1, ptr %28, align 1
  %194 = load ptr, ptr %9, align 8
  %195 = load i16, ptr %22, align 2
  %196 = zext i16 %195 to i32
  %197 = add i32 %196, 2
  %198 = call zeroext i8 @tvb_get_uint8(ptr noundef %194, i32 noundef %197)
  store i8 %198, ptr %27, align 1
  %199 = load ptr, ptr %9, align 8
  %200 = load i16, ptr %22, align 2
  %201 = zext i16 %200 to i32
  %202 = add i32 %201, 3
  %203 = call i32 @tvb_get_letoh24(ptr noundef %199, i32 noundef %202)
  store i32 %203, ptr %25, align 4
  %204 = load i8, ptr %27, align 1
  %205 = zext i8 %204 to i32
  %206 = and i32 %205, 15
  %207 = icmp eq i32 %206, 0
  br i1 %207, label %208, label %209

208:                                              ; preds = %193
  store i8 0, ptr %28, align 1
  br label %209

209:                                              ; preds = %208, %193
  %210 = load ptr, ptr %9, align 8
  %211 = load ptr, ptr %10, align 8
  %212 = load ptr, ptr %12, align 8
  %213 = load i16, ptr %19, align 2
  %214 = load i32, ptr %25, align 4
  %215 = load i8, ptr %28, align 1, !range !6, !noundef !7
  %216 = trunc i8 %215 to i1
  %217 = call ptr @sccp_reassemble_fragments(ptr noundef %210, ptr noundef %211, ptr noundef %212, i16 noundef zeroext %213, i32 noundef %214, i1 noundef zeroext %216)
  store ptr %217, ptr %24, align 8
  %218 = load ptr, ptr %24, align 8
  %219 = icmp ne ptr %218, null
  br i1 %219, label %220, label %227

220:                                              ; preds = %209
  %221 = load ptr, ptr %24, align 8
  %222 = load ptr, ptr %10, align 8
  %223 = load ptr, ptr %12, align 8
  %224 = load ptr, ptr %14, align 8
  %225 = getelementptr inbounds nuw %struct._sccp_decode_context_t, ptr %224, i32 0, i32 3
  %226 = load ptr, ptr %225, align 8
  call void @dissect_sccp_data_param(ptr noundef %221, ptr noundef %222, ptr noundef %223, ptr noundef %226)
  br label %227

227:                                              ; preds = %220, %209
  call void @llvm.lifetime.end.p0(i64 1, ptr %28) #10
  call void @llvm.lifetime.end.p0(i64 1, ptr %27) #10
  br label %228

228:                                              ; preds = %227, %180
  br label %238

229:                                              ; preds = %170
  %230 = load ptr, ptr %9, align 8
  %231 = load ptr, ptr %10, align 8
  %232 = load ptr, ptr %11, align 8
  %233 = load ptr, ptr %12, align 8
  %234 = load i16, ptr %19, align 2
  %235 = zext i16 %234 to i32
  %236 = load ptr, ptr %14, align 8
  %237 = call zeroext i16 @dissect_sccp_variable_parameter(ptr noundef %230, ptr noundef %231, ptr noundef %232, ptr noundef %233, i8 noundef zeroext 15, i32 noundef %235, ptr noundef %236)
  br label %238

238:                                              ; preds = %229, %228
  %239 = load i16, ptr %20, align 2
  %240 = load ptr, ptr %15, align 8
  store i16 %239, ptr %240, align 2
  %241 = load i16, ptr %21, align 2
  %242 = load ptr, ptr %16, align 8
  store i16 %241, ptr %242, align 2
  %243 = load i32, ptr %13, align 4
  call void @llvm.lifetime.end.p0(i64 4, ptr %26) #10
  call void @llvm.lifetime.end.p0(i64 4, ptr %25) #10
  call void @llvm.lifetime.end.p0(i64 8, ptr %24) #10
  call void @llvm.lifetime.end.p0(i64 1, ptr %23) #10
  call void @llvm.lifetime.end.p0(i64 2, ptr %22) #10
  call void @llvm.lifetime.end.p0(i64 2, ptr %21) #10
  call void @llvm.lifetime.end.p0(i64 2, ptr %20) #10
  call void @llvm.lifetime.end.p0(i64 2, ptr %19) #10
  call void @llvm.lifetime.end.p0(i64 2, ptr %18) #10
  call void @llvm.lifetime.end.p0(i64 2, ptr %17) #10
  ret i32 %243
}